Certificate:
    Data:
        Version: 3 (0x2)
        Serial Number: 1 (0x1)
        Signature Algorithm: sha256WithRSAEncryption
        Issuer: C=ID, ST=Jawa Timur, L=Surabaya, O=miris/miris, CN=miris/miris Root CA/emailAddress=email@example.com
        Validity
            Not Before: Oct  8 01:33:50 2019 GMT
            Not After : Oct  7 01:33:50 2020 GMT
        Subject: C=ID, ST=Jawa Timur, O=miris/miris, OU=miris/miris, CN=phalcon-init.local
        Subject Public Key Info:
            Public Key Algorithm: rsaEncryption
                RSA Public-Key: (4096 bit)
                Modulus:
                    00:b2:96:4a:da:90:d1:af:95:dc:fa:d0:1a:79:98:
                    6c:71:63:86:06:51:1f:f4:bd:26:09:39:b0:4d:b4:
                    bf:ba:00:fe:a4:12:e0:25:33:c5:fe:63:6a:5c:d9:
                    d9:b7:74:04:eb:9b:ed:ba:41:6e:87:2f:44:a5:49:
                    b9:ad:ac:38:d1:25:a8:c6:eb:4a:07:0d:d5:c1:d3:
                    cc:79:e0:46:8d:01:f4:97:dc:da:49:4f:db:b7:0b:
                    94:87:28:d4:7f:be:52:59:49:19:7c:dd:76:53:6e:
                    d5:44:a9:53:1d:6a:66:9b:bc:69:01:e3:54:b8:0e:
                    11:65:a3:3a:56:8d:c6:98:99:a2:0a:e8:5f:90:07:
                    f5:99:46:57:11:a5:49:c5:91:eb:a9:3a:25:35:79:
                    60:6b:17:54:32:ec:75:a7:91:fb:d0:3a:7c:20:09:
                    27:4f:9d:c1:b5:5c:d3:e0:de:b9:e0:d7:27:80:28:
                    23:1e:3e:85:d6:83:79:14:3d:ec:a2:c0:21:e8:a6:
                    ec:86:5e:8f:c5:fd:2d:38:90:02:8f:de:60:da:02:
                    06:3d:0a:1a:d9:0e:09:25:66:c2:aa:06:11:ab:ff:
                    e1:15:66:61:cd:f8:61:8a:c1:73:87:f1:79:27:f3:
                    d0:6d:4f:dc:12:c8:6b:bf:9c:e3:be:78:cd:9a:1e:
                    dc:fc:b3:94:7b:ac:1e:0b:ff:2c:1a:4b:0c:8b:eb:
                    e3:27:e8:3d:21:70:3f:c7:e8:58:3d:6c:27:67:7a:
                    fe:0b:18:b1:29:65:23:f4:c4:5d:d2:35:eb:ae:96:
                    0a:7a:95:80:8c:cb:4a:cd:1b:3f:75:47:89:ea:f5:
                    25:5e:c4:03:00:8f:42:61:c5:05:bf:b7:3e:4a:6e:
                    80:4e:55:5f:c8:f9:ab:e6:16:1e:d5:08:f4:71:88:
                    d3:aa:99:3b:63:4b:be:7f:ec:68:49:50:41:10:e9:
                    0b:11:f9:3a:83:1c:f0:bd:c7:3f:69:08:ef:6b:0e:
                    65:99:ca:c3:e9:19:6a:a2:d0:bf:4b:15:de:58:27:
                    20:5f:0e:ac:1e:6f:90:96:1a:8b:17:aa:47:51:cd:
                    11:e6:eb:f4:60:23:d8:10:c7:b7:df:c0:08:15:c1:
                    ba:81:5e:bb:9f:8d:e0:b0:42:54:96:ee:29:a7:f0:
                    8f:75:0a:1e:7e:00:b4:34:42:bb:02:8e:5b:82:6d:
                    a4:c4:24:14:3a:0d:1f:2b:f7:8b:4b:ea:e4:4e:94:
                    24:50:cf:6d:94:7d:ae:b0:a7:b1:ec:d3:f9:de:85:
                    2f:cc:98:35:16:94:5e:ff:c8:30:c8:5f:9e:41:9b:
                    b4:f9:9a:30:40:0e:c4:c6:2f:56:79:9d:00:68:89:
                    40:ab:2d
                Exponent: 65537 (0x10001)
        X509v3 extensions:
            X509v3 Basic Constraints: 
                CA:FALSE
            X509v3 Subject Key Identifier: 
                24:CF:37:54:6B:91:E1:57:BF:C2:E2:9F:5A:35:44:ED:B5:4B:06:AD
            X509v3 Authority Key Identifier: 
                keyid:0D:DC:CA:58:4C:AB:07:59:66:00:17:7D:15:ED:14:39:D1:4D:45:44
                DirName:/C=ID/ST=Jawa Timur/L=Surabaya/O=miris/miris/CN=miris/miris Root CA/emailAddress=email@example.com
                serial:20:81:4A:C3:81:15:A8:5B:DA:3A:1E:CD:57:7E:D5:60:B1:E5:CA:AC

            Netscape CA Revocation Url: 
                https://ca.local/ca-crl.pem
            X509v3 Subject Alternative Name: 
                DNS:phalcon-init.local, DNS:www.phalcon-init.local
    Signature Algorithm: sha256WithRSAEncryption
         8e:f9:14:4b:7e:34:fd:c4:f7:ef:c0:b3:64:d0:8f:58:a5:ca:
         af:8a:3d:62:10:b2:31:98:13:f2:29:4c:7c:85:fa:8d:e2:59:
         41:35:cb:f9:7a:40:2d:22:a9:70:40:58:81:1d:51:d8:e6:e7:
         2c:c3:b8:a3:08:39:6b:66:06:8b:e2:6e:6a:9e:5d:7e:c7:dd:
         c1:94:6b:e3:c4:14:6b:48:e1:0a:7c:40:25:21:f1:48:15:b0:
         37:0a:23:e3:4e:ad:25:c0:bc:99:8c:b8:2c:60:23:81:dc:1a:
         2a:13:45:e3:cf:0c:ab:2a:df:13:e5:d2:52:d4:c1:98:f6:21:
         36:b1:48:d1:79:cc:4d:a3:a2:66:bc:6c:a5:87:dc:d8:2f:e1:
         74:f8:41:26:91:0c:a6:cd:b4:97:e5:8c:0d:30:20:fe:7d:c9:
         a2:31:eb:29:d3:c5:72:cb:95:84:eb:8f:5b:45:8b:4c:f9:f9:
         2c:f8:ea:fd:97:36:aa:fd:2e:86:ff:ba:1e:d8:28:d9:d8:bb:
         5c:28:b8:5c:76:6e:2a:d5:a3:7e:49:a3:14:82:07:77:9d:ec:
         14:c6:c2:0a:16:dc:52:db:4b:97:9e:b2:f1:01:3d:fc:02:c8:
         80:c1:06:c0:f9:89:19:90:56:cf:0e:1c:45:0b:cb:d0:26:1e:
         e6:24:9a:f8:80:b5:d5:3c:13:d7:dd:ad:59:05:13:72:71:dc:
         0f:9c:1f:25:21:0e:a1:9a:a9:90:4b:99:af:18:1f:1b:2d:67:
         37:fa:87:0b:29:2a:bc:67:95:f6:64:5e:5c:08:d7:d8:99:da:
         78:56:20:5a:d3:5b:6a:9c:39:e9:02:f1:b4:00:ad:90:2f:a5:
         2b:86:62:0c:d0:bc:72:63:3f:d3:ab:3a:e7:86:9b:41:f7:64:
         c3:be:0e:8a:a3:10:e7:f4:95:2e:9d:a0:81:76:9a:d4:ac:32:
         1c:c1:d6:c5:1d:eb:e3:54:37:6a:a9:87:53:2d:6a:13:d4:01:
         1f:35:34:d5:f3:f5:53:b1:ec:ca:72:2d:cc:84:8a:6c:27:9c:
         14:da:83:5c:35:1e:7f:12:ed:4c:2b:5b:59:bf:e9:85:ba:02:
         70:60:f5:02:3b:f0:aa:be:50:08:f0:e9:0c:e7:99:43:fd:f8:
         70:c9:55:fb:6e:2f:53:df:37:af:10:e6:d7:c7:25:c6:40:65:
         fc:4a:bd:4f:1c:04:6f:f4:82:ef:e6:45:95:35:a3:4a:28:1b:
         5d:dc:17:1a:fa:2a:a3:9e:b4:aa:98:08:2f:d8:f7:4f:b5:01:
         7b:22:db:3c:6d:c9:80:5e:fe:4d:24:9f:05:1d:7c:9f:29:f3:
         aa:15:43:6d:15:af:a0:f7
-----BEGIN CERTIFICATE-----
MIIG0zCCBLugAwIBAgIBATANBgkqhkiG9w0BAQsFADCBizELMAkGA1UEBhMCSUQx
EzARBgNVBAgMCkphd2EgVGltdXIxETAPBgNVBAcMCFN1cmFiYXlhMRQwEgYDVQQK
DAttaXJpcy9taXJpczEcMBoGA1UEAwwTbWlyaXMvbWlyaXMgUm9vdCBDQTEgMB4G
CSqGSIb3DQEJARYRZW1haWxAZXhhbXBsZS5jb20wHhcNMTkxMDA4MDEzMzUwWhcN
MjAxMDA3MDEzMzUwWjBrMQswCQYDVQQGEwJJRDETMBEGA1UECAwKSmF3YSBUaW11
cjEUMBIGA1UECgwLbWlyaXMvbWlyaXMxFDASBgNVBAsMC21pcmlzL21pcmlzMRsw
GQYDVQQDDBJwaGFsY29uLWluaXQubG9jYWwwggIiMA0GCSqGSIb3DQEBAQUAA4IC
DwAwggIKAoICAQCylkrakNGvldz60Bp5mGxxY4YGUR/0vSYJObBNtL+6AP6kEuAl
M8X+Y2pc2dm3dATrm+26QW6HL0SlSbmtrDjRJajG60oHDdXB08x54EaNAfSX3NpJ
T9u3C5SHKNR/vlJZSRl83XZTbtVEqVMdamabvGkB41S4DhFlozpWjcaYmaIK6F+Q
B/WZRlcRpUnFkeupOiU1eWBrF1Qy7HWnkfvQOnwgCSdPncG1XNPg3rng1yeAKCMe
PoXWg3kUPeyiwCHopuyGXo/F/S04kAKP3mDaAgY9ChrZDgklZsKqBhGr/+EVZmHN
+GGKwXOH8Xkn89BtT9wSyGu/nOO+eM2aHtz8s5R7rB4L/ywaSwyL6+Mn6D0hcD/H
6Fg9bCdnev4LGLEpZSP0xF3SNeuulgp6lYCMy0rNGz91R4nq9SVexAMAj0JhxQW/
tz5KboBOVV/I+avmFh7VCPRxiNOqmTtjS75/7GhJUEEQ6QsR+TqDHPC9xz9pCO9r
DmWZysPpGWqi0L9LFd5YJyBfDqweb5CWGosXqkdRzRHm6/RgI9gQx7ffwAgVwbqB
XrufjeCwQlSW7imn8I91Ch5+ALQ0QrsCjluCbaTEJBQ6DR8r94tL6uROlCRQz22U
fa6wp7Hs0/nehS/MmDUWlF7/yDDIX55Bm7T5mjBADsTGL1Z5nQBoiUCrLQIDAQAB
o4IBXzCCAVswCQYDVR0TBAIwADAdBgNVHQ4EFgQUJM83VGuR4Ve/wuKfWjVE7bVL
Bq0wgcsGA1UdIwSBwzCBwIAUDdzKWEyrB1lmABd9Fe0UOdFNRUShgZGkgY4wgYsx
CzAJBgNVBAYTAklEMRMwEQYDVQQIDApKYXdhIFRpbXVyMREwDwYDVQQHDAhTdXJh
YmF5YTEUMBIGA1UECgwLbWlyaXMvbWlyaXMxHDAaBgNVBAMME21pcmlzL21pcmlz
IFJvb3QgQ0ExIDAeBgkqhkiG9w0BCQEWEWVtYWlsQGV4YW1wbGUuY29tghQggUrD
gRWoW9o6Hs1XftVgseXKrDAqBglghkgBhvhCAQQEHRYbaHR0cHM6Ly9jYS5sb2Nh
bC9jYS1jcmwucGVtMDUGA1UdEQQuMCyCEnBoYWxjb24taW5pdC5sb2NhbIIWd3d3
LnBoYWxjb24taW5pdC5sb2NhbDANBgkqhkiG9w0BAQsFAAOCAgEAjvkUS340/cT3
78CzZNCPWKXKr4o9YhCyMZgT8ilMfIX6jeJZQTXL+XpALSKpcEBYgR1R2ObnLMO4
owg5a2YGi+Juap5dfsfdwZRr48QUa0jhCnxAJSHxSBWwNwoj406tJcC8mYy4LGAj
gdwaKhNF488MqyrfE+XSUtTBmPYhNrFI0XnMTaOiZrxspYfc2C/hdPhBJpEMps20
l+WMDTAg/n3JojHrKdPFcsuVhOuPW0WLTPn5LPjq/Zc2qv0uhv+6Htgo2di7XCi4
XHZuKtWjfkmjFIIHd53sFMbCChbcUttLl56y8QE9/ALIgMEGwPmJGZBWzw4cRQvL
0CYe5iSa+IC11TwT192tWQUTcnHcD5wfJSEOoZqpkEuZrxgfGy1nN/qHCykqvGeV
9mReXAjX2JnaeFYgWtNbapw56QLxtACtkC+lK4ZiDNC8cmM/06s654abQfdkw74O
iqMQ5/SVLp2ggXaa1KwyHMHWxR3r41Q3aqmHUy1qE9QBHzU01fP1U7HsynItzISK
bCecFNqDXDUefxLtTCtbWb/phboCcGD1Ajvwqr5QCPDpDOeZQ/34cMlV+24vU983
rxDm18clxkBl/Eq9TxwEb/SC7+ZFlTWjSigbXdwXGvoqo560qpgIL9j3T7UBeyLb
PG3JgF7+TSSfBR18nynzqhVDbRWvoPc=
-----END CERTIFICATE-----
